target datalayout = "e-m:e-p270:32:32-p271:32:32-p272:64:64-i64:64-i128:128-f80:128-n8:16:32:64-S128"
target triple = "x86_64-pc-linux-gnu"

%struct._zval_struct = type { %union._zend_value, %union.anon, %union.anon.2 }
%union._zend_value = type { i64 }
%union.anon = type { i32 }
%union.anon.2 = type { i32 }
%struct._zend_refcounted_h = type { i32, %union.anon.3 }
%union.anon.3 = type { i32 }
%struct._xmlNode = type { ptr, i32, ptr, ptr, ptr, ptr, ptr, ptr, ptr, ptr, ptr, ptr, ptr, ptr, i16, i16 }
%struct._xmlAttr = type { ptr, i32, ptr, ptr, ptr, ptr, ptr, ptr, ptr, ptr, i32, ptr }
%struct._xmlEntity = type { ptr, i32, ptr, ptr, ptr, ptr, ptr, ptr, ptr, ptr, ptr, i32, i32, ptr, ptr, ptr, ptr, i32, i32 }
%struct._xmlDtd = type { ptr, i32, ptr, ptr, ptr, ptr, ptr, ptr, ptr, ptr, ptr, ptr, ptr, ptr, ptr, ptr }
%struct._php_libxml_node_ptr = type { ptr, i32, ptr }
%struct._zend_object = type { %struct._zend_refcounted_h, i32, ptr, ptr, ptr, [1 x %struct._zval_struct] }
%struct._php_libxml_node_object = type { ptr, ptr, %struct._zend_object }

; Function Attrs: nounwind uwtable
define i32 @php_libxml_decrement_node_ptr(ptr noundef %0) #0 {
  %2 = alloca ptr, align 8
  %3 = alloca i32, align 4
  %4 = alloca ptr, align 8
  store ptr %0, ptr %2, align 8
  store i32 -1, ptr %3, align 4
  %5 = load ptr, ptr %2, align 8
  %6 = icmp ne ptr %5, null
  br i1 %6, label %7, label %37

7:                                                ; preds = %1
  %8 = load ptr, ptr %2, align 8
  %9 = getelementptr inbounds %struct._php_libxml_node_object, ptr %8, i32 0, i32 0
  %10 = load ptr, ptr %9, align 8
  %11 = icmp ne ptr %10, null
  br i1 %11, label %12, label %37

12:                                               ; preds = %7
  %13 = load ptr, ptr %2, align 8
  %14 = getelementptr inbounds %struct._php_libxml_node_object, ptr %13, i32 0, i32 0
  %15 = load ptr, ptr %14, align 8
  store ptr %15, ptr %4, align 8
  %16 = load ptr, ptr %4, align 8
  %17 = getelementptr inbounds %struct._php_libxml_node_ptr, ptr %16, i32 0, i32 1
  %18 = load i32, ptr %17, align 8
  %19 = add nsw i32 %18, -1
  store i32 %19, ptr %17, align 8
  store i32 %19, ptr %3, align 4
  %20 = load i32, ptr %3, align 4
  %21 = icmp eq i32 %20, 0
  br i1 %21, label %22, label %34

22:                                               ; preds = %12
  %23 = load ptr, ptr %4, align 8
  %24 = getelementptr inbounds %struct._php_libxml_node_ptr, ptr %23, i32 0, i32 0
  %25 = load ptr, ptr %24, align 8
  %26 = icmp ne ptr %25, null
  br i1 %26, label %27, label %32

27:                                               ; preds = %22
  %28 = load ptr, ptr %4, align 8
  %29 = getelementptr inbounds %struct._php_libxml_node_ptr, ptr %28, i32 0, i32 0
  %30 = load ptr, ptr %29, align 8
  %31 = getelementptr inbounds %struct._xmlNode, ptr %30, i32 0, i32 0
  store ptr null, ptr %31, align 8
  br label %32

32:                                               ; preds = %27, %22
  %33 = load ptr, ptr %4, align 8
  call void @_efree(ptr noundef %33)
  br label %34

34:                                               ; preds = %32, %12
  %35 = load ptr, ptr %2, align 8
  %36 = getelementptr inbounds %struct._php_libxml_node_object, ptr %35, i32 0, i32 0
  store ptr null, ptr %36, align 8
  br label %37

37:                                               ; preds = %34, %7, %1
  %38 = load i32, ptr %3, align 4
  ret i32 %38
}

; Function Attrs: nounwind uwtable
define internal void @php_libxml_unregister_node(ptr noundef %0) #0 {
  %2 = alloca ptr, align 8
  %3 = alloca ptr, align 8
  %4 = alloca ptr, align 8
  store ptr %0, ptr %2, align 8
  %5 = load ptr, ptr %2, align 8
  %6 = getelementptr inbounds %struct._xmlNode, ptr %5, i32 0, i32 0
  %7 = load ptr, ptr %6, align 8
  store ptr %7, ptr %4, align 8
  %8 = load ptr, ptr %4, align 8
  %9 = icmp ne ptr %8, null
  br i1 %9, label %10, label %42

10:                                               ; preds = %1
  %11 = load ptr, ptr %4, align 8
  %12 = getelementptr inbounds %struct._php_libxml_node_ptr, ptr %11, i32 0, i32 2
  %13 = load ptr, ptr %12, align 8
  store ptr %13, ptr %3, align 8
  %14 = load ptr, ptr %3, align 8
  %15 = icmp ne ptr %14, null
  br i1 %15, label %16, label %21

16:                                               ; preds = %10
  %17 = load ptr, ptr %3, align 8
  %18 = call i32 @php_libxml_decrement_node_ptr(ptr noundef %17)
  %19 = load ptr, ptr %3, align 8
  %20 = call i32 @php_libxml_decrement_doc_ref(ptr noundef %19)
  br label %41

21:                                               ; preds = %10
  %22 = load ptr, ptr %4, align 8
  %23 = getelementptr inbounds %struct._php_libxml_node_ptr, ptr %22, i32 0, i32 0
  %24 = load ptr, ptr %23, align 8
  %25 = icmp ne ptr %24, null
  br i1 %25, label %26, label %38

26:                                               ; preds = %21
  %27 = load ptr, ptr %4, align 8
  %28 = getelementptr inbounds %struct._php_libxml_node_ptr, ptr %27, i32 0, i32 0
  %29 = load ptr, ptr %28, align 8
  %30 = getelementptr inbounds %struct._xmlNode, ptr %29, i32 0, i32 1
  %31 = load i32, ptr %30, align 8
  %32 = icmp ne i32 %31, 9
  br i1 %32, label %33, label %38

33:                                               ; preds = %26
  %34 = load ptr, ptr %4, align 8
  %35 = getelementptr inbounds %struct._php_libxml_node_ptr, ptr %34, i32 0, i32 0
  %36 = load ptr, ptr %35, align 8
  %37 = getelementptr inbounds %struct._xmlNode, ptr %36, i32 0, i32 0
  store ptr null, ptr %37, align 8
  br label %38

38:                                               ; preds = %33, %26, %21
  %39 = load ptr, ptr %4, align 8
  %40 = getelementptr inbounds %struct._php_libxml_node_ptr, ptr %39, i32 0, i32 0
  store ptr null, ptr %40, align 8
  br label %41

41:                                               ; preds = %38, %16
  br label %42

42:                                               ; preds = %41, %1
  ret void
}

; Function Attrs: nounwind uwtable
define internal void @php_libxml_unlink_entity_decl(ptr noundef %0) #0 {
  %2 = alloca ptr, align 8
  %3 = alloca ptr, align 8
  store ptr %0, ptr %2, align 8
  %4 = load ptr, ptr %2, align 8
  %5 = getelementptr inbounds %struct._xmlEntity, ptr %4, i32 0, i32 5
  %6 = load ptr, ptr %5, align 8
  store ptr %6, ptr %3, align 8
  %7 = load ptr, ptr %3, align 8
  %8 = icmp ne ptr %7, null
  br i1 %8, label %9, label %46

9:                                                ; preds = %1
  %10 = load ptr, ptr %3, align 8
  %11 = getelementptr inbounds %struct._xmlDtd, ptr %10, i32 0, i32 12
  %12 = load ptr, ptr %11, align 8
  %13 = load ptr, ptr %2, align 8
  %14 = getelementptr inbounds %struct._xmlEntity, ptr %13, i32 0, i32 2
  %15 = load ptr, ptr %14, align 8
  %16 = call ptr @xmlHashLookup(ptr noundef %12, ptr noundef %15)
  %17 = load ptr, ptr %2, align 8
  %18 = icmp eq ptr %16, %17
  br i1 %18, label %19, label %27

19:                                               ; preds = %9
  %20 = load ptr, ptr %3, align 8
  %21 = getelementptr inbounds %struct._xmlDtd, ptr %20, i32 0, i32 12
  %22 = load ptr, ptr %21, align 8
  %23 = load ptr, ptr %2, align 8
  %24 = getelementptr inbounds %struct._xmlEntity, ptr %23, i32 0, i32 2
  %25 = load ptr, ptr %24, align 8
  %26 = call i32 @xmlHashRemoveEntry(ptr noundef %22, ptr noundef %25, ptr noundef null)
  br label %27

27:                                               ; preds = %19, %9
  %28 = load ptr, ptr %3, align 8
  %29 = getelementptr inbounds %struct._xmlDtd, ptr %28, i32 0, i32 15
  %30 = load ptr, ptr %29, align 8
  %31 = load ptr, ptr %2, align 8
  %32 = getelementptr inbounds %struct._xmlEntity, ptr %31, i32 0, i32 2
  %33 = load ptr, ptr %32, align 8
  %34 = call ptr @xmlHashLookup(ptr noundef %30, ptr noundef %33)
  %35 = load ptr, ptr %2, align 8
  %36 = icmp eq ptr %34, %35
  br i1 %36, label %37, label %45

37:                                               ; preds = %27
  %38 = load ptr, ptr %3, align 8
  %39 = getelementptr inbounds %struct._xmlDtd, ptr %38, i32 0, i32 15
  %40 = load ptr, ptr %39, align 8
  %41 = load ptr, ptr %2, align 8
  %42 = getelementptr inbounds %struct._xmlEntity, ptr %41, i32 0, i32 2
  %43 = load ptr, ptr %42, align 8
  %44 = call i32 @xmlHashRemoveEntry(ptr noundef %40, ptr noundef %43, ptr noundef null)
  br label %45

45:                                               ; preds = %37, %27
  br label %46

46:                                               ; preds = %45, %1
  ret void
}

; Function Attrs: nounwind uwtable
define void @php_libxml_node_free_list(ptr noundef %0) #0 {
  %2 = alloca ptr, align 8
  %3 = alloca ptr, align 8
  %4 = alloca ptr, align 8
  store ptr %0, ptr %2, align 8
  %5 = load ptr, ptr %2, align 8
  %6 = icmp ne ptr %5, null
  br i1 %6, label %7, label %82

7:                                                ; preds = %1
  %8 = load ptr, ptr %2, align 8
  store ptr %8, ptr %3, align 8
  br label %9

9:                                                ; preds = %74, %32, %7
  %10 = load ptr, ptr %3, align 8
  %11 = icmp ne ptr %10, null
  br i1 %11, label %12, label %81

12:                                               ; preds = %9
  %13 = load ptr, ptr %3, align 8
  %14 = getelementptr inbounds %struct._xmlNode, ptr %13, i32 0, i32 0
  %15 = load ptr, ptr %14, align 8
  %16 = icmp ne ptr %15, null
  br i1 %16, label %17, label %34

17:                                               ; preds = %12
  %18 = load ptr, ptr %3, align 8
  %19 = getelementptr inbounds %struct._xmlNode, ptr %18, i32 0, i32 6
  %20 = load ptr, ptr %19, align 8
  store ptr %20, ptr %4, align 8
  %21 = load ptr, ptr %3, align 8
  call void @xmlUnlinkNode(ptr noundef %21)
  %22 = load ptr, ptr %3, align 8
  %23 = getelementptr inbounds %struct._xmlNode, ptr %22, i32 0, i32 1
  %24 = load i32, ptr %23, align 8
  %25 = icmp eq i32 %24, 1
  br i1 %25, label %26, label %32

26:                                               ; preds = %17
  %27 = load ptr, ptr %3, align 8
  %28 = getelementptr inbounds %struct._xmlNode, ptr %27, i32 0, i32 8
  %29 = load ptr, ptr %28, align 8
  %30 = load ptr, ptr %3, align 8
  %31 = call i32 @xmlReconciliateNs(ptr noundef %29, ptr noundef %30)
  br label %32

32:                                               ; preds = %26, %17
  %33 = load ptr, ptr %4, align 8
  store ptr %33, ptr %3, align 8
  br label %9

34:                                               ; preds = %12
  %35 = load ptr, ptr %3, align 8
  store ptr %35, ptr %2, align 8
  %36 = load ptr, ptr %2, align 8
  %37 = getelementptr inbounds %struct._xmlNode, ptr %36, i32 0, i32 1
  %38 = load i32, ptr %37, align 8
  switch i32 %38, label %67 [
    i32 12, label %39
    i32 17, label %40
    i32 5, label %42
    i32 2, label %46
    i32 16, label %63
    i32 14, label %63
    i32 10, label %63
    i32 18, label %63
    i32 3, label %63
  ]

39:                                               ; preds = %34
  br label %74

40:                                               ; preds = %34
  %41 = load ptr, ptr %2, align 8
  call void @php_libxml_unlink_entity_decl(ptr noundef %41)
  br label %74

42:                                               ; preds = %34
  %43 = load ptr, ptr %2, align 8
  %44 = getelementptr inbounds %struct._xmlNode, ptr %43, i32 0, i32 11
  %45 = load ptr, ptr %44, align 8
  call void @php_libxml_node_free_list(ptr noundef %45)
  br label %74

46:                                               ; preds = %34
  %47 = load ptr, ptr %2, align 8
  %48 = getelementptr inbounds %struct._xmlNode, ptr %47, i32 0, i32 8
  %49 = load ptr, ptr %48, align 8
  %50 = icmp ne ptr %49, null
  br i1 %50, label %51, label %62

51:                                               ; preds = %46
  %52 = load ptr, ptr %2, align 8
  %53 = getelementptr inbounds %struct._xmlAttr, ptr %52, i32 0, i32 10
  %54 = load i32, ptr %53, align 8
  %55 = icmp eq i32 %54, 2
  br i1 %55, label %56, label %62

56:                                               ; preds = %51
  %57 = load ptr, ptr %2, align 8
  %58 = getelementptr inbounds %struct._xmlNode, ptr %57, i32 0, i32 8
  %59 = load ptr, ptr %58, align 8
  %60 = load ptr, ptr %2, align 8
  %61 = call i32 @xmlRemoveID(ptr noundef %59, ptr noundef %60)
  br label %62

62:                                               ; preds = %56, %51, %46
  br label %63

63:                                               ; preds = %62, %34, %34, %34, %34, %34
  %64 = load ptr, ptr %2, align 8
  %65 = getelementptr inbounds %struct._xmlNode, ptr %64, i32 0, i32 3
  %66 = load ptr, ptr %65, align 8
  call void @php_libxml_node_free_list(ptr noundef %66)
  br label %74

67:                                               ; preds = %34
  %68 = load ptr, ptr %2, align 8
  %69 = getelementptr inbounds %struct._xmlNode, ptr %68, i32 0, i32 3
  %70 = load ptr, ptr %69, align 8
  call void @php_libxml_node_free_list(ptr noundef %70)
  %71 = load ptr, ptr %2, align 8
  %72 = getelementptr inbounds %struct._xmlNode, ptr %71, i32 0, i32 11
  %73 = load ptr, ptr %72, align 8
  call void @php_libxml_node_free_list(ptr noundef %73)
  br label %74

74:                                               ; preds = %67, %63, %42, %40, %39
  %75 = load ptr, ptr %2, align 8
  %76 = getelementptr inbounds %struct._xmlNode, ptr %75, i32 0, i32 6
  %77 = load ptr, ptr %76, align 8
  store ptr %77, ptr %3, align 8
  %78 = load ptr, ptr %2, align 8
  call void @xmlUnlinkNode(ptr noundef %78)
  %79 = load ptr, ptr %2, align 8
  call void @php_libxml_unregister_node(ptr noundef %79)
  %80 = load ptr, ptr %2, align 8
  call void @php_libxml_node_free(ptr noundef %80)
  br label %9

81:                                               ; preds = %9
  br label %82

82:                                               ; preds = %81, %1
  ret void
}