; Function Attrs: nounwind uwtable
define void @php_libxml_node_free_list(ptr noundef %0) local_unnamed_addr #0 {
  %.not = icmp eq ptr %0, null
  br i1 %.not, label %.loopexit, label %.preheader

.preheader:                                       ; preds = %1, %.backedge
  %.031 = phi ptr [ %.0.be, %.backedge ], [ %0, %1 ]
  %2 = load ptr, ptr %.031, align 8
  %.not28 = icmp eq ptr %2, null
  br i1 %.not28, label %13, label %3

3:                                                ; preds = %.preheader
  %4 = getelementptr inbounds i8, ptr %.031, i64 48
  %5 = load ptr, ptr %4, align 8
  tail call void @xmlUnlinkNode(ptr noundef nonnull %.031) #17
  %6 = getelementptr inbounds i8, ptr %.031, i64 8
  %7 = load i32, ptr %6, align 8
  %8 = icmp eq i32 %7, 1
  br i1 %8, label %9, label %.backedge

9:                                                ; preds = %3
  %10 = getelementptr inbounds i8, ptr %.031, i64 64
  %11 = load ptr, ptr %10, align 8
  %12 = tail call i32 @xmlReconciliateNs(ptr noundef %11, ptr noundef nonnull %.031) #17
  br label %.backedge

.backedge:                                        ; preds = %3, %9, %php_libxml_unregister_node.exit
  %.0.be = phi ptr [ %61, %php_libxml_unregister_node.exit ], [ %5, %9 ], [ %5, %3 ]
  %.not27 = icmp eq ptr %.0.be, null
  br i1 %.not27, label %.loopexit, label %.preheader

13:                                               ; preds = %.preheader
  %14 = getelementptr inbounds i8, ptr %.031, i64 8
  %15 = load i32, ptr %14, align 8
  switch i32 %15, label %55 [
    i32 12, label %php_libxml_unlink_entity_decl.exit
    i32 17, label %16
    i32 5, label %40
    i32 2, label %43
    i32 16, label %52
    i32 14, label %52
    i32 10, label %52
    i32 18, label %52
    i32 3, label %52
  ]

16:                                               ; preds = %13
  %17 = getelementptr inbounds i8, ptr %.031, i64 40
  %18 = load ptr, ptr %17, align 8
  %.not.i = icmp eq ptr %18, null
  br i1 %.not.i, label %php_libxml_unlink_entity_decl.exit, label %19

19:                                               ; preds = %16
  %20 = getelementptr inbounds i8, ptr %18, i64 96
  %21 = load ptr, ptr %20, align 8
  %22 = getelementptr inbounds i8, ptr %.031, i64 16
  %23 = load ptr, ptr %22, align 8
  %24 = tail call ptr @xmlHashLookup(ptr noundef %21, ptr noundef %23) #17
  %25 = icmp eq ptr %24, %.031
  br i1 %25, label %26, label %30

26:                                               ; preds = %19
  %27 = load ptr, ptr %20, align 8
  %28 = load ptr, ptr %22, align 8
  %29 = tail call i32 @xmlHashRemoveEntry(ptr noundef %27, ptr noundef %28, ptr noundef null) #17
  br label %30

30:                                               ; preds = %26, %19
  %31 = getelementptr inbounds i8, ptr %18, i64 120
  %32 = load ptr, ptr %31, align 8
  %33 = load ptr, ptr %22, align 8
  %34 = tail call ptr @xmlHashLookup(ptr noundef %32, ptr noundef %33) #17
  %35 = icmp eq ptr %34, %.031
  br i1 %35, label %36, label %php_libxml_unlink_entity_decl.exit

36:                                               ; preds = %30
  %37 = load ptr, ptr %31, align 8
  %38 = load ptr, ptr %22, align 8
  %39 = tail call i32 @xmlHashRemoveEntry(ptr noundef %37, ptr noundef %38, ptr noundef null) #17
  br label %php_libxml_unlink_entity_decl.exit

40:                                               ; preds = %13
  %41 = getelementptr inbounds i8, ptr %.031, i64 88
  %42 = load ptr, ptr %41, align 8
  tail call void @php_libxml_node_free_list(ptr noundef %42)
  br label %php_libxml_unlink_entity_decl.exit

43:                                               ; preds = %13
  %44 = getelementptr inbounds i8, ptr %.031, i64 64
  %45 = load ptr, ptr %44, align 8
  %.not29 = icmp eq ptr %45, null
  br i1 %.not29, label %52, label %46

46:                                               ; preds = %43
  %47 = getelementptr inbounds i8, ptr %.031, i64 80
  %48 = load i32, ptr %47, align 8
  %49 = icmp eq i32 %48, 2
  br i1 %49, label %50, label %52

50:                                               ; preds = %46
  %51 = tail call i32 @xmlRemoveID(ptr noundef nonnull %45, ptr noundef nonnull %.031) #17
  br label %52

52:                                               ; preds = %43, %46, %50, %13, %13, %13, %13, %13
  %53 = getelementptr inbounds i8, ptr %.031, i64 24
  %54 = load ptr, ptr %53, align 8
  tail call void @php_libxml_node_free_list(ptr noundef %54)
  br label %php_libxml_unlink_entity_decl.exit

55:                                               ; preds = %13
  %56 = getelementptr inbounds i8, ptr %.031, i64 24
  %57 = load ptr, ptr %56, align 8
  tail call void @php_libxml_node_free_list(ptr noundef %57)
  %58 = getelementptr inbounds i8, ptr %.031, i64 88
  %59 = load ptr, ptr %58, align 8
  tail call void @php_libxml_node_free_list(ptr noundef %59)
  br label %php_libxml_unlink_entity_decl.exit

php_libxml_unlink_entity_decl.exit:               ; preds = %36, %30, %16, %13, %55, %52, %40
  %60 = getelementptr inbounds i8, ptr %.031, i64 48
  %61 = load ptr, ptr %60, align 8
  tail call void @xmlUnlinkNode(ptr noundef nonnull %.031) #17
  %.0.val = load ptr, ptr %.031, align 8
  %.not.i30 = icmp eq ptr %.0.val, null
  br i1 %.not.i30, label %php_libxml_unregister_node.exit, label %62

62:                                               ; preds = %php_libxml_unlink_entity_decl.exit
  %63 = getelementptr inbounds i8, ptr %.0.val, i64 16
  %64 = load ptr, ptr %63, align 8
  %.not12.i = icmp eq ptr %64, null
  br i1 %.not12.i, label %78, label %65

65:                                               ; preds = %62
  %66 = load ptr, ptr %64, align 8
  %.not12.i.i = icmp eq ptr %66, null
  br i1 %.not12.i.i, label %php_libxml_decrement_node_ptr.exit.i, label %67

67:                                               ; preds = %65
  %68 = getelementptr inbounds i8, ptr %66, i64 8
  %69 = load i32, ptr %68, align 8
  %70 = add nsw i32 %69, -1
  store i32 %70, ptr %68, align 8
  %71 = icmp eq i32 %70, 0
  br i1 %71, label %72, label %76

72:                                               ; preds = %67
  %73 = load ptr, ptr %66, align 8
  %.not13.i.i = icmp eq ptr %73, null
  br i1 %.not13.i.i, label %75, label %74

74:                                               ; preds = %72
  store ptr null, ptr %73, align 8
  br label %75

75:                                               ; preds = %74, %72
  tail call void @_efree(ptr noundef nonnull %66) #17
  br label %76

76:                                               ; preds = %75, %67
  store ptr null, ptr %64, align 8
  br label %php_libxml_decrement_node_ptr.exit.i

php_libxml_decrement_node_ptr.exit.i:             ; preds = %76, %65
  %77 = tail call i32 @php_libxml_decrement_doc_ref(ptr noundef nonnull %64)
  br label %php_libxml_unregister_node.exit

78:                                               ; preds = %62
  %79 = load ptr, ptr %.0.val, align 8
  %.not13.i = icmp eq ptr %79, null
  br i1 %.not13.i, label %84, label %80

80:                                               ; preds = %78
  %81 = getelementptr inbounds i8, ptr %79, i64 8
  %82 = load i32, ptr %81, align 8
  %.not14.i = icmp eq i32 %82, 9
  br i1 %.not14.i, label %84, label %83

83:                                               ; preds = %80
  store ptr null, ptr %79, align 8
  br label %84

84:                                               ; preds = %83, %80, %78
  store ptr null, ptr %.0.val, align 8
  br label %php_libxml_unregister_node.exit

php_libxml_unregister_node.exit:                  ; preds = %php_libxml_unlink_entity_decl.exit, %php_libxml_decrement_node_ptr.exit.i, %84
  tail call fastcc void @php_libxml_node_free(ptr noundef nonnull %.031)
  br label %.backedge

.loopexit:                                        ; preds = %.backedge, %1
  ret void
}